target datalayout = "e-m:e-p270:32:32-p271:32:32-p272:64:64-i64:64-i128:128-f80:128-n8:16:32:64-S128"
target triple = "x86_64-pc-linux-gnu"

@.str.1 = private unnamed_addr constant [3 x i8] c"rb\00", align 1

; Function Attrs: nounwind uwtable
define hidden i32 @mbedtls_hmac_drbg_update_seed_file(ptr noundef %0, ptr noundef %1) #0 {
  %3 = alloca i32, align 4
  %4 = alloca ptr, align 8
  %5 = alloca ptr, align 8
  %6 = alloca i32, align 4
  %7 = alloca ptr, align 8
  %8 = alloca i64, align 8
  %9 = alloca [256 x i8], align 16
  %10 = alloca i8, align 1
  %11 = alloca i32, align 4
  store ptr %0, ptr %4, align 8, !tbaa !3
  store ptr %1, ptr %5, align 8, !tbaa !14
  call void @llvm.lifetime.start.p0(i64 4, ptr %6) #7
  store i32 0, ptr %6, align 4, !tbaa !19
  call void @llvm.lifetime.start.p0(i64 8, ptr %7) #7
  store ptr null, ptr %7, align 8, !tbaa !30
  call void @llvm.lifetime.start.p0(i64 8, ptr %8) #7
  call void @llvm.lifetime.start.p0(i64 256, ptr %9) #7
  call void @llvm.lifetime.start.p0(i64 1, ptr %10) #7
  %12 = load ptr, ptr %5, align 8, !tbaa !14
  %13 = call noalias ptr @fopen(ptr noundef %12, ptr noundef @.str.1)
  store ptr %13, ptr %7, align 8, !tbaa !30
  %14 = icmp eq ptr %13, null
  br i1 %14, label %15, label %16

15:                                               ; preds = %2
  store i32 -7, ptr %3, align 4
  store i32 1, ptr %11, align 4
  br label %56

16:                                               ; preds = %2
  %17 = load ptr, ptr %7, align 8, !tbaa !30
  call void @setbuf(ptr noundef %17, ptr noundef null) #7
  %18 = getelementptr inbounds [256 x i8], ptr %9, i64 0, i64 0
  %19 = load ptr, ptr %7, align 8, !tbaa !30
  %20 = call i64 @fread(ptr noundef %18, i64 noundef 1, i64 noundef 256, ptr noundef %19)
  store i64 %20, ptr %8, align 8, !tbaa !16
  %21 = load ptr, ptr %7, align 8, !tbaa !30
  %22 = call i64 @fread(ptr noundef %10, i64 noundef 1, i64 noundef 1, ptr noundef %21)
  %23 = icmp ne i64 %22, 0
  br i1 %23, label %24, label %25

24:                                               ; preds = %16
  store i32 -5, ptr %6, align 4, !tbaa !19
  br label %40

25:                                               ; preds = %16
  %26 = load i64, ptr %8, align 8, !tbaa !16
  %27 = icmp eq i64 %26, 0
  br i1 %27, label %32, label %28

28:                                               ; preds = %25
  %29 = load ptr, ptr %7, align 8, !tbaa !30
  %30 = call i32 @ferror(ptr noundef %29) #7
  %31 = icmp ne i32 %30, 0
  br i1 %31, label %32, label %33

32:                                               ; preds = %28, %25
  store i32 -7, ptr %6, align 4, !tbaa !19
  br label %40

33:                                               ; preds = %28
  %34 = load ptr, ptr %7, align 8, !tbaa !30
  %35 = call i32 @fclose(ptr noundef %34)
  store ptr null, ptr %7, align 8, !tbaa !30
  %36 = load ptr, ptr %4, align 8, !tbaa !3
  %37 = getelementptr inbounds [256 x i8], ptr %9, i64 0, i64 0
  %38 = load i64, ptr %8, align 8, !tbaa !16
  %39 = call i32 @mbedtls_hmac_drbg_update(ptr noundef %36, ptr noundef %37, i64 noundef %38)
  store i32 %39, ptr %6, align 4, !tbaa !19
  br label %40

40:                                               ; preds = %33, %32, %24
  %41 = getelementptr inbounds [256 x i8], ptr %9, i64 0, i64 0
  call void @mbedtls_platform_zeroize(ptr noundef %41, i64 noundef 256)
  %42 = load ptr, ptr %7, align 8, !tbaa !30
  %43 = icmp ne ptr %42, null
  br i1 %43, label %44, label %47

44:                                               ; preds = %40
  %45 = load ptr, ptr %7, align 8, !tbaa !30
  %46 = call i32 @fclose(ptr noundef %45)
  br label %47

47:                                               ; preds = %44, %40
  %48 = load i32, ptr %6, align 4, !tbaa !19
  %49 = icmp ne i32 %48, 0
  br i1 %49, label %50, label %52

50:                                               ; preds = %47
  %51 = load i32, ptr %6, align 4, !tbaa !19
  store i32 %51, ptr %3, align 4
  store i32 1, ptr %11, align 4
  br label %56

52:                                               ; preds = %47
  %53 = load ptr, ptr %4, align 8, !tbaa !3
  %54 = load ptr, ptr %5, align 8, !tbaa !14
  %55 = call i32 @mbedtls_hmac_drbg_write_seed_file(ptr noundef %53, ptr noundef %54)
  store i32 %55, ptr %3, align 4
  store i32 1, ptr %11, align 4
  br label %56

56:                                               ; preds = %52, %50, %15
  call void @llvm.lifetime.end.p0(i64 1, ptr %10) #7
  call void @llvm.lifetime.end.p0(i64 256, ptr %9) #7
  call void @llvm.lifetime.end.p0(i64 8, ptr %8) #7
  call void @llvm.lifetime.end.p0(i64 8, ptr %7) #7
  call void @llvm.lifetime.end.p0(i64 4, ptr %6) #7
  %57 = load i32, ptr %3, align 4
  ret i32 %57
}