; Function Attrs: nounwind uwtable
define hidden i32 @mbedtls_hmac_drbg_update_seed_file(ptr noundef %0, ptr noundef readonly captures(none) %1) local_unnamed_addr #2 {
  %3 = alloca [256 x i8], align 16
  %4 = alloca i8, align 1
  call void @llvm.lifetime.start.p0(i64 256, ptr nonnull %3) #12
  call void @llvm.lifetime.start.p0(i64 1, ptr nonnull %4) #12
  %5 = tail call noalias ptr @fopen(ptr noundef %1, ptr noundef nonnull @.str.1)
  %6 = icmp eq ptr %5, null
  br i1 %6, label %20, label %7

7:                                                ; preds = %2
  tail call void @setbuf(ptr noundef nonnull %5, ptr noundef null) #12
  %8 = call i64 @fread(ptr noundef nonnull %3, i64 noundef 1, i64 noundef 256, ptr noundef nonnull %5)
  %9 = call i64 @fread(ptr noundef nonnull %4, i64 noundef 1, i64 noundef 1, ptr noundef nonnull %5)
  %.not = icmp eq i64 %9, 0
  br i1 %.not, label %10, label %.thread28

10:                                               ; preds = %7
  %11 = icmp eq i64 %8, 0
  br i1 %11, label %.thread28, label %12

12:                                               ; preds = %10
  %13 = tail call i32 @ferror(ptr noundef nonnull %5) #12
  %.not19 = icmp eq i32 %13, 0
  br i1 %.not19, label %15, label %.thread28

.thread28:                                        ; preds = %10, %12, %7
  %.016.ph = phi i32 [ -7, %10 ], [ -7, %12 ], [ -5, %7 ]
  call void @mbedtls_platform_zeroize(ptr noundef nonnull %3, i64 noundef 256) #12
  %14 = call i32 @fclose(ptr noundef nonnull %5)
  br label %20

15:                                               ; preds = %12
  %16 = tail call i32 @fclose(ptr noundef nonnull %5)
  %17 = call i32 @mbedtls_hmac_drbg_update(ptr noundef %0, ptr noundef nonnull %3, i64 noundef %8)
  call void @mbedtls_platform_zeroize(ptr noundef nonnull %3, i64 noundef 256) #12
  %.not21 = icmp eq i32 %17, 0
  br i1 %.not21, label %18, label %20

18:                                               ; preds = %15
  %19 = call i32 @mbedtls_hmac_drbg_write_seed_file(ptr noundef %0, ptr noundef %1)
  br label %20

20:                                               ; preds = %.thread28, %15, %2, %18
  %.0 = phi i32 [ %19, %18 ], [ -7, %2 ], [ %17, %15 ], [ %.016.ph, %.thread28 ]
  call void @llvm.lifetime.end.p0(i64 1, ptr nonnull %4) #12
  call void @llvm.lifetime.end.p0(i64 256, ptr nonnull %3) #12
  ret i32 %.0
}